target datalayout = "e-m:e-p270:32:32-p271:32:32-p272:64:64-i64:64-i128:128-f80:128-n8:16:32:64-S128"
target triple = "x86_64-pc-linux-gnu"

%struct.OSQPVectorf_ = type { ptr, i64 }

; Function Attrs: nounwind uwtable
define i64 @OSQPVectorf_all_leq(ptr noundef %0, ptr noundef %1) #0 {
  %3 = alloca i64, align 8
  %4 = alloca ptr, align 8
  %5 = alloca ptr, align 8
  %6 = alloca i64, align 8
  %7 = alloca i64, align 8
  %8 = alloca ptr, align 8
  %9 = alloca ptr, align 8
  store ptr %0, ptr %4, align 8
  store ptr %1, ptr %5, align 8
  %10 = load ptr, ptr %4, align 8
  %11 = getelementptr inbounds %struct.OSQPVectorf_, ptr %10, i32 0, i32 1
  %12 = load i64, ptr %11, align 8
  store i64 %12, ptr %7, align 8
  %13 = load ptr, ptr %4, align 8
  %14 = getelementptr inbounds %struct.OSQPVectorf_, ptr %13, i32 0, i32 0
  %15 = load ptr, ptr %14, align 8
  store ptr %15, ptr %8, align 8
  %16 = load ptr, ptr %5, align 8
  %17 = getelementptr inbounds %struct.OSQPVectorf_, ptr %16, i32 0, i32 0
  %18 = load ptr, ptr %17, align 8
  store ptr %18, ptr %9, align 8
  store i64 0, ptr %6, align 8
  br label %19

19:                                               ; preds = %35, %2
  %20 = load i64, ptr %6, align 8
  %21 = load i64, ptr %7, align 8
  %22 = icmp slt i64 %20, %21
  br i1 %22, label %23, label %38

23:                                               ; preds = %19
  %24 = load ptr, ptr %8, align 8
  %25 = load i64, ptr %6, align 8
  %26 = getelementptr inbounds double, ptr %24, i64 %25
  %27 = load double, ptr %26, align 8
  %28 = load ptr, ptr %9, align 8
  %29 = load i64, ptr %6, align 8
  %30 = getelementptr inbounds double, ptr %28, i64 %29
  %31 = load double, ptr %30, align 8
  %32 = fcmp ogt double %27, %31
  br i1 %32, label %33, label %34

33:                                               ; preds = %23
  store i64 0, ptr %3, align 8
  br label %39

34:                                               ; preds = %23
  br label %35

35:                                               ; preds = %34
  %36 = load i64, ptr %6, align 8
  %37 = add nsw i64 %36, 1
  store i64 %37, ptr %6, align 8
  br label %19, !llvm.loop !36

38:                                               ; preds = %19
  store i64 1, ptr %3, align 8
  br label %39

39:                                               ; preds = %38, %33
  %40 = load i64, ptr %3, align 8
  ret i64 %40
}