; Function Attrs: nofree norecurse nosync nounwind memory(read, inaccessiblemem: none) uwtable
define noundef i64 @OSQPVectorf_all_leq(ptr nocapture noundef readonly %0, ptr nocapture noundef readonly %1) local_unnamed_addr #0 {
  %3 = getelementptr inbounds i8, ptr %0, i64 8
  %4 = load i64, ptr %3, align 8
  %5 = load ptr, ptr %0, align 8
  %6 = load ptr, ptr %1, align 8
  %7 = icmp sgt i64 %4, 0
  br i1 %7, label %.lr.ph, label %._crit_edge

8:                                                ; preds = %.lr.ph
  %9 = add nuw nsw i64 %.01011, 1
  %exitcond.not = icmp eq i64 %9, %4
  br i1 %exitcond.not, label %._crit_edge, label %.lr.ph, !llvm.loop !36

.lr.ph:                                           ; preds = %2, %8
  %.01011 = phi i64 [ %9, %8 ], [ 0, %2 ]
  %10 = getelementptr inbounds double, ptr %5, i64 %.01011
  %11 = load double, ptr %10, align 8
  %12 = getelementptr inbounds double, ptr %6, i64 %.01011
  %13 = load double, ptr %12, align 8
  %14 = fcmp ogt double %11, %13
  br i1 %14, label %._crit_edge, label %8

._crit_edge:                                      ; preds = %.lr.ph, %8, %2
  %.0 = phi i64 [ 1, %2 ], [ 1, %8 ], [ 0, %.lr.ph ]
  ret i64 %.0
}